; Function Attrs: nofree norecurse nosync nounwind memory(read, inaccessiblemem: none) uwtable
define i32 @Bac_PtrMemoryArrayArray(ptr noundef readonly captures(none) %0) local_unnamed_addr #2 {
  %2 = getelementptr i8, ptr %0, i64 4
  %.val8 = load i32, ptr %2, align 4
  %3 = icmp sgt i32 %.val8, 0
  br i1 %3, label %.lr.ph, label %.critedge

.lr.ph:                                           ; preds = %1
  %4 = getelementptr i8, ptr %0, i64 8
  %.val = load ptr, ptr %4, align 8
  %wide.trip.count = zext nneg i32 %.val8 to i64
  br label %5

5:                                                ; preds = %.lr.ph, %Bac_PtrMemoryArray.exit
  %indvars.iv = phi i64 [ 0, %.lr.ph ], [ %indvars.iv.next, %Bac_PtrMemoryArray.exit ]
  %.010 = phi i32 [ 0, %.lr.ph ], [ %15, %Bac_PtrMemoryArray.exit ]
  %6 = getelementptr inbounds nuw ptr, ptr %.val, i64 %indvars.iv
  %7 = load ptr, ptr %6, align 8
  %.not.i.i = icmp eq ptr %7, null
  br i1 %.not.i.i, label %Bac_PtrMemoryArray.exit, label %8

8:                                                ; preds = %5
  %9 = load i32, ptr %7, align 8
  %10 = sext i32 %9 to i64
  %11 = uitofp i64 %10 to double
  %12 = tail call double @llvm.fmuladd.f64(double %11, double 8.000000e+00, double 1.600000e+01)
  %13 = fptosi double %12 to i32
  br label %Bac_PtrMemoryArray.exit

Bac_PtrMemoryArray.exit:                          ; preds = %5, %8
  %14 = phi i32 [ %13, %8 ], [ 0, %5 ]
  %15 = add nsw i32 %14, %.010
  %indvars.iv.next = add nuw nsw i64 %indvars.iv, 1
  %exitcond.not = icmp eq i64 %indvars.iv.next, %wide.trip.count
  br i1 %exitcond.not, label %.critedge, label %5, !llvm.loop !7

.critedge:                                        ; preds = %Bac_PtrMemoryArray.exit, %1
  %.0.lcssa = phi i32 [ 0, %1 ], [ %15, %Bac_PtrMemoryArray.exit ]
  ret i32 %.0.lcssa
}